target datalayout = "e-m:e-p270:32:32-p271:32:32-p272:64:64-i64:64-i128:128-f80:128-n8:16:32:64-S128"
target triple = "x86_64-pc-linux-gnu"

%"class.icu_77::ICUDataTable" = type { ptr, %"class.icu_77::Locale" }
%"class.icu_77::Locale" = type <{ %"class.icu_77::UObject", [12 x i8], [6 x i8], [4 x i8], [2 x i8], i32, [4 x i8], ptr, [157 x i8], [3 x i8], ptr, i8, [7 x i8] }>
%"class.icu_77::UObject" = type { ptr }
%"class.icu_77::UnicodeString" = type { %"class.icu_77::Replaceable", %"union.icu_77::UnicodeString::StackBufferOrFields" }
%"class.icu_77::Replaceable" = type { %"class.icu_77::UObject" }
%"union.icu_77::UnicodeString::StackBufferOrFields" = type { %struct.anon.0, [32 x i8] }
%struct.anon.0 = type { i16, i32, i32, ptr }
%"class.icu_77::LocaleDisplayNamesImpl" = type <{ %"class.icu_77::LocaleDisplayNames", %"class.icu_77::Locale", i32, [4 x i8], %"class.icu_77::ICUDataTable", %"class.icu_77::ICUDataTable", %"class.icu_77::SimpleFormatter", %"class.icu_77::SimpleFormatter", %"class.icu_77::SimpleFormatter", i32, [4 x i8], ptr, %"class.icu_77::UnicodeString", %"class.icu_77::UnicodeString", %"class.icu_77::UnicodeString", %"class.icu_77::UnicodeString", i32, i32, [6 x i8], [2 x i8] }>
%"class.icu_77::LocaleDisplayNames" = type { %"class.icu_77::UObject" }
%"class.icu_77::SimpleFormatter" = type { [8 x i8], %"class.icu_77::UnicodeString" }
%struct.anon = type { i16, [27 x i16] }

@.str = private unnamed_addr constant [14 x i8] c"icudt77l-lang\00", align 1
@.str.1 = private unnamed_addr constant [16 x i8] c"icudt77l-region\00", align 1
@_ZTVN6icu_777UObjectE = available_externally unnamed_addr constant { [5 x ptr] } { [5 x ptr] [ptr null, ptr @_ZTIN6icu_777UObjectE, ptr @_ZN6icu_777UObjectD1Ev, ptr @_ZN6icu_777UObjectD0Ev, ptr @_ZNK6icu_777UObject17getDynamicClassIDEv] }, align 8
@_ZN6icu_7712ICUDataTableC1EPKcRKNS_6LocaleE = unnamed_addr alias void (ptr, ptr, ptr), ptr @_ZN6icu_7712ICUDataTableC2EPKcRKNS_6LocaleE

; Function Attrs: inlinehint mustprogress nounwind uwtable
define linkonce_odr void @_ZN6icu_7711ReplaceableC2Ev(ptr noundef nonnull align 8 dereferenceable(8) %0) unnamed_addr #2 comdat align 2 {
  %2 = alloca ptr, align 8
  store ptr %0, ptr %2, align 8, !tbaa !122
  %3 = load ptr, ptr %2, align 8
  call void @_ZN6icu_777UObjectC2Ev(ptr noundef nonnull align 8 dereferenceable(8) %3) #13
  store ptr getelementptr inbounds inrange(-16, 88) ({ [13 x ptr] }, ptr @_ZTVN6icu_7711ReplaceableE, i32 0, i32 0, i32 2), ptr %3, align 8, !tbaa !42
  ret void
}

; Function Attrs: inlinehint mustprogress nounwind uwtable
define linkonce_odr void @_ZN6icu_777UObjectC2Ev(ptr noundef nonnull align 8 dereferenceable(8) %0) unnamed_addr #2 comdat align 2 {
  %2 = alloca ptr, align 8
  store ptr %0, ptr %2, align 8, !tbaa !120
  %3 = load ptr, ptr %2, align 8
  store ptr getelementptr inbounds inrange(-16, 24) ({ [5 x ptr] }, ptr @_ZTVN6icu_777UObjectE, i32 0, i32 0, i32 2), ptr %3, align 8, !tbaa !42
  ret void
}

; Function Attrs: mustprogress nounwind uwtable
define void @_ZN6icu_7718LocaleDisplayNamesD2Ev(ptr noundef nonnull align 8 dereferenceable(8) %0) unnamed_addr #0 align 2 {
  %2 = alloca ptr, align 8
  store ptr %0, ptr %2, align 8, !tbaa !36
  %3 = load ptr, ptr %2, align 8
  call void @_ZN6icu_777UObjectD2Ev(ptr noundef nonnull align 8 dereferenceable(8) %3) #13
  ret void
}

; Function Attrs: mustprogress nounwind uwtable
define linkonce_odr void @_ZN6icu_7712ICUDataTableD2Ev(ptr noundef nonnull align 8 dereferenceable(232) %0) unnamed_addr #0 comdat align 2 {
  %2 = alloca ptr, align 8
  store ptr %0, ptr %2, align 8, !tbaa !23
  %3 = load ptr, ptr %2, align 8
  %4 = getelementptr inbounds nuw %"class.icu_77::ICUDataTable", ptr %3, i32 0, i32 1
  call void @_ZN6icu_776LocaleD1Ev(ptr noundef nonnull align 8 dereferenceable(217) %4) #13
  ret void
}

; Function Attrs: inlinehint mustprogress uwtable
define linkonce_odr void @_ZN6icu_7713UnicodeStringC2Ev(ptr noundef nonnull align 8 dereferenceable(64) %0) unnamed_addr #3 comdat align 2 {
  %2 = alloca ptr, align 8
  store ptr %0, ptr %2, align 8, !tbaa !31
  %3 = load ptr, ptr %2, align 8
  call void @_ZN6icu_7711ReplaceableC2Ev(ptr noundef nonnull align 8 dereferenceable(8) %3)
  store ptr getelementptr inbounds inrange(-16, 88) ({ [13 x ptr] }, ptr @_ZTVN6icu_7713UnicodeStringE, i32 0, i32 0, i32 2), ptr %3, align 8, !tbaa !42
  %4 = getelementptr inbounds nuw %"class.icu_77::UnicodeString", ptr %3, i32 0, i32 1
  %5 = getelementptr inbounds nuw %struct.anon, ptr %4, i32 0, i32 0
  store i16 2, ptr %5, align 8, !tbaa !58
  ret void
}

; Function Attrs: mustprogress uwtable
define linkonce_odr void @_ZN6icu_7715SimpleFormatterC2Ev(ptr noundef nonnull align 8 dereferenceable(72) %0) unnamed_addr #1 comdat align 2 {
  %2 = alloca ptr, align 8
  store ptr %0, ptr %2, align 8, !tbaa !56
  %3 = load ptr, ptr %2, align 8
  %4 = getelementptr inbounds nuw %"class.icu_77::SimpleFormatter", ptr %3, i32 0, i32 1
  call void @_ZN6icu_7713UnicodeStringC1EDs(ptr noundef nonnull align 8 dereferenceable(64) %4, i16 noundef zeroext 0)
  ret void
}

; Function Attrs: inlinehint mustprogress nounwind uwtable
define linkonce_odr void @_ZN6icu_7718LocaleDisplayNamesC2Ev(ptr noundef nonnull align 8 dereferenceable(8) %0) unnamed_addr #2 comdat align 2 {
  %2 = alloca ptr, align 8
  store ptr %0, ptr %2, align 8, !tbaa !36
  %3 = load ptr, ptr %2, align 8
  call void @_ZN6icu_777UObjectC2Ev(ptr noundef nonnull align 8 dereferenceable(8) %3) #13
  store ptr getelementptr inbounds inrange(-16, 120) ({ [17 x ptr] }, ptr @_ZTVN6icu_7718LocaleDisplayNamesE, i32 0, i32 0, i32 2), ptr %3, align 8, !tbaa !42
  ret void
}

; Function Attrs: mustprogress uwtable
define void @_ZN6icu_7722LocaleDisplayNamesImplC2ERKNS_6LocaleE16UDialectHandling(ptr noundef nonnull align 8 dereferenceable(1206) %0, ptr noundef nonnull align 8 dereferenceable(217) %1, i32 noundef %2) unnamed_addr #1 align 2 personality ptr @__gxx_personality_v0 {
  %4 = alloca ptr, align 8
  %5 = alloca ptr, align 8
  %6 = alloca i32, align 4
  %7 = alloca ptr, align 8
  %8 = alloca i32, align 4
  store ptr %0, ptr %4, align 8, !tbaa !38
  store ptr %1, ptr %5, align 8, !tbaa !25
  store i32 %2, ptr %6, align 4, !tbaa !40
  %9 = load ptr, ptr %4, align 8
  call void @_ZN6icu_7718LocaleDisplayNamesC2Ev(ptr noundef nonnull align 8 dereferenceable(8) %9) #13
  store ptr getelementptr inbounds inrange(-16, 120) ({ [17 x ptr] }, ptr @_ZTVN6icu_7722LocaleDisplayNamesImplE, i32 0, i32 0, i32 2), ptr %9, align 8, !tbaa !42
  %10 = getelementptr inbounds nuw %"class.icu_77::LocaleDisplayNamesImpl", ptr %9, i32 0, i32 1
  invoke void @_ZN6icu_776LocaleC1Ev(ptr noundef nonnull align 8 dereferenceable(217) %10)
          to label %11 unwind label %39

11:                                               ; preds = %3
  %12 = getelementptr inbounds nuw %"class.icu_77::LocaleDisplayNamesImpl", ptr %9, i32 0, i32 2
  %13 = load i32, ptr %6, align 4, !tbaa !40
  store i32 %13, ptr %12, align 8, !tbaa !44
  %14 = getelementptr inbounds nuw %"class.icu_77::LocaleDisplayNamesImpl", ptr %9, i32 0, i32 4
  %15 = load ptr, ptr %5, align 8, !tbaa !25
  invoke void @_ZN6icu_7712ICUDataTableC1EPKcRKNS_6LocaleE(ptr noundef nonnull align 8 dereferenceable(232) %14, ptr noundef @.str, ptr noundef nonnull align 8 dereferenceable(217) %15)
          to label %16 unwind label %43

16:                                               ; preds = %11
  %17 = getelementptr inbounds nuw %"class.icu_77::LocaleDisplayNamesImpl", ptr %9, i32 0, i32 5
  %18 = load ptr, ptr %5, align 8, !tbaa !25
  invoke void @_ZN6icu_7712ICUDataTableC1EPKcRKNS_6LocaleE(ptr noundef nonnull align 8 dereferenceable(232) %17, ptr noundef @.str.1, ptr noundef nonnull align 8 dereferenceable(217) %18)
          to label %19 unwind label %47

19:                                               ; preds = %16
  %20 = getelementptr inbounds nuw %"class.icu_77::LocaleDisplayNamesImpl", ptr %9, i32 0, i32 6
  invoke void @_ZN6icu_7715SimpleFormatterC2Ev(ptr noundef nonnull align 8 dereferenceable(72) %20)
          to label %21 unwind label %51

21:                                               ; preds = %19
  %22 = getelementptr inbounds nuw %"class.icu_77::LocaleDisplayNamesImpl", ptr %9, i32 0, i32 7
  invoke void @_ZN6icu_7715SimpleFormatterC2Ev(ptr noundef nonnull align 8 dereferenceable(72) %22)
          to label %23 unwind label %55

23:                                               ; preds = %21
  %24 = getelementptr inbounds nuw %"class.icu_77::LocaleDisplayNamesImpl", ptr %9, i32 0, i32 8
  invoke void @_ZN6icu_7715SimpleFormatterC2Ev(ptr noundef nonnull align 8 dereferenceable(72) %24)
          to label %25 unwind label %59

25:                                               ; preds = %23
  %26 = getelementptr inbounds nuw %"class.icu_77::LocaleDisplayNamesImpl", ptr %9, i32 0, i32 9
  store i32 256, ptr %26, align 8, !tbaa !52
  %27 = getelementptr inbounds nuw %"class.icu_77::LocaleDisplayNamesImpl", ptr %9, i32 0, i32 11
  store ptr null, ptr %27, align 8, !tbaa !53
  %28 = getelementptr inbounds nuw %"class.icu_77::LocaleDisplayNamesImpl", ptr %9, i32 0, i32 12
  invoke void @_ZN6icu_7713UnicodeStringC2Ev(ptr noundef nonnull align 8 dereferenceable(64) %28)
          to label %29 unwind label %63

29:                                               ; preds = %25
  %30 = getelementptr inbounds nuw %"class.icu_77::LocaleDisplayNamesImpl", ptr %9, i32 0, i32 13
  invoke void @_ZN6icu_7713UnicodeStringC2Ev(ptr noundef nonnull align 8 dereferenceable(64) %30)
          to label %31 unwind label %67

31:                                               ; preds = %29
  %32 = getelementptr inbounds nuw %"class.icu_77::LocaleDisplayNamesImpl", ptr %9, i32 0, i32 14
  invoke void @_ZN6icu_7713UnicodeStringC2Ev(ptr noundef nonnull align 8 dereferenceable(64) %32)
          to label %33 unwind label %71

33:                                               ; preds = %31
  %34 = getelementptr inbounds nuw %"class.icu_77::LocaleDisplayNamesImpl", ptr %9, i32 0, i32 15
  invoke void @_ZN6icu_7713UnicodeStringC2Ev(ptr noundef nonnull align 8 dereferenceable(64) %34)
          to label %35 unwind label %75

35:                                               ; preds = %33
  %36 = getelementptr inbounds nuw %"class.icu_77::LocaleDisplayNamesImpl", ptr %9, i32 0, i32 16
  store i32 512, ptr %36, align 8, !tbaa !54
  %37 = getelementptr inbounds nuw %"class.icu_77::LocaleDisplayNamesImpl", ptr %9, i32 0, i32 17
  store i32 768, ptr %37, align 4, !tbaa !55
  invoke void @_ZN6icu_7722LocaleDisplayNamesImpl10initializeEv(ptr noundef nonnull align 8 dereferenceable(1206) %9)
          to label %38 unwind label %79

38:                                               ; preds = %35
  ret void

39:                                               ; preds = %3
  %40 = landingpad { ptr, i32 }
          cleanup
  %41 = extractvalue { ptr, i32 } %40, 0
  store ptr %41, ptr %7, align 8
  %42 = extractvalue { ptr, i32 } %40, 1
  store i32 %42, ptr %8, align 4
  br label %92

43:                                               ; preds = %11
  %44 = landingpad { ptr, i32 }
          cleanup
  %45 = extractvalue { ptr, i32 } %44, 0
  store ptr %45, ptr %7, align 8
  %46 = extractvalue { ptr, i32 } %44, 1
  store i32 %46, ptr %8, align 4
  br label %91

47:                                               ; preds = %16
  %48 = landingpad { ptr, i32 }
          cleanup
  %49 = extractvalue { ptr, i32 } %48, 0
  store ptr %49, ptr %7, align 8
  %50 = extractvalue { ptr, i32 } %48, 1
  store i32 %50, ptr %8, align 4
  br label %90

51:                                               ; preds = %19
  %52 = landingpad { ptr, i32 }
          cleanup
  %53 = extractvalue { ptr, i32 } %52, 0
  store ptr %53, ptr %7, align 8
  %54 = extractvalue { ptr, i32 } %52, 1
  store i32 %54, ptr %8, align 4
  br label %89

55:                                               ; preds = %21
  %56 = landingpad { ptr, i32 }
          cleanup
  %57 = extractvalue { ptr, i32 } %56, 0
  store ptr %57, ptr %7, align 8
  %58 = extractvalue { ptr, i32 } %56, 1
  store i32 %58, ptr %8, align 4
  br label %88

59:                                               ; preds = %23
  %60 = landingpad { ptr, i32 }
          cleanup
  %61 = extractvalue { ptr, i32 } %60, 0
  store ptr %61, ptr %7, align 8
  %62 = extractvalue { ptr, i32 } %60, 1
  store i32 %62, ptr %8, align 4
  br label %87

63:                                               ; preds = %25
  %64 = landingpad { ptr, i32 }
          cleanup
  %65 = extractvalue { ptr, i32 } %64, 0
  store ptr %65, ptr %7, align 8
  %66 = extractvalue { ptr, i32 } %64, 1
  store i32 %66, ptr %8, align 4
  br label %86

67:                                               ; preds = %29
  %68 = landingpad { ptr, i32 }
          cleanup
  %69 = extractvalue { ptr, i32 } %68, 0
  store ptr %69, ptr %7, align 8
  %70 = extractvalue { ptr, i32 } %68, 1
  store i32 %70, ptr %8, align 4
  br label %85

71:                                               ; preds = %31
  %72 = landingpad { ptr, i32 }
          cleanup
  %73 = extractvalue { ptr, i32 } %72, 0
  store ptr %73, ptr %7, align 8
  %74 = extractvalue { ptr, i32 } %72, 1
  store i32 %74, ptr %8, align 4
  br label %84

75:                                               ; preds = %33
  %76 = landingpad { ptr, i32 }
          cleanup
  %77 = extractvalue { ptr, i32 } %76, 0
  store ptr %77, ptr %7, align 8
  %78 = extractvalue { ptr, i32 } %76, 1
  store i32 %78, ptr %8, align 4
  br label %83

79:                                               ; preds = %35
  %80 = landingpad { ptr, i32 }
          cleanup
  %81 = extractvalue { ptr, i32 } %80, 0
  store ptr %81, ptr %7, align 8
  %82 = extractvalue { ptr, i32 } %80, 1
  store i32 %82, ptr %8, align 4
  call void @_ZN6icu_7713UnicodeStringD1Ev(ptr noundef nonnull align 8 dereferenceable(64) %34) #13
  br label %83

83:                                               ; preds = %79, %75
  call void @_ZN6icu_7713UnicodeStringD1Ev(ptr noundef nonnull align 8 dereferenceable(64) %32) #13
  br label %84

84:                                               ; preds = %83, %71
  call void @_ZN6icu_7713UnicodeStringD1Ev(ptr noundef nonnull align 8 dereferenceable(64) %30) #13
  br label %85

85:                                               ; preds = %84, %67
  call void @_ZN6icu_7713UnicodeStringD1Ev(ptr noundef nonnull align 8 dereferenceable(64) %28) #13
  br label %86

86:                                               ; preds = %85, %63
  call void @_ZN6icu_7715SimpleFormatterD1Ev(ptr noundef nonnull align 8 dereferenceable(72) %24) #13
  br label %87

87:                                               ; preds = %86, %59
  call void @_ZN6icu_7715SimpleFormatterD1Ev(ptr noundef nonnull align 8 dereferenceable(72) %22) #13
  br label %88

88:                                               ; preds = %87, %55
  call void @_ZN6icu_7715SimpleFormatterD1Ev(ptr noundef nonnull align 8 dereferenceable(72) %20) #13
  br label %89

89:                                               ; preds = %88, %51
  call void @_ZN6icu_7712ICUDataTableD2Ev(ptr noundef nonnull align 8 dereferenceable(232) %17) #13
  br label %90

90:                                               ; preds = %89, %47
  call void @_ZN6icu_7712ICUDataTableD2Ev(ptr noundef nonnull align 8 dereferenceable(232) %14) #13
  br label %91

91:                                               ; preds = %90, %43
  call void @_ZN6icu_776LocaleD1Ev(ptr noundef nonnull align 8 dereferenceable(217) %10) #13
  br label %92

92:                                               ; preds = %91, %39
  call void @_ZN6icu_7718LocaleDisplayNamesD2Ev(ptr noundef nonnull align 8 dereferenceable(8) %9) #13
  br label %93

93:                                               ; preds = %92
  %94 = load ptr, ptr %7, align 8
  %95 = load i32, ptr %8, align 4
  %96 = insertvalue { ptr, i32 } poison, ptr %94, 0
  %97 = insertvalue { ptr, i32 } %96, i32 %95, 1
  resume { ptr, i32 } %97
}