; Function Attrs: mustprogress uwtable
define void @_ZN6icu_7722LocaleDisplayNamesImplC2ERKNS_6LocaleE16UDialectHandling(ptr noundef nonnull align 8 dereferenceable(1206) initializes((0, 8)) %0, ptr noundef nonnull align 8 dereferenceable(217) %1, i32 noundef %2) unnamed_addr #1 align 2 personality ptr @__gxx_personality_v0 {
  store ptr getelementptr inbounds nuw inrange(-16, 120) (i8, ptr @_ZTVN6icu_7722LocaleDisplayNamesImplE, i64 16), ptr %0, align 8, !tbaa !21
  %4 = getelementptr inbounds nuw i8, ptr %0, i64 8
  invoke void @_ZN6icu_776LocaleC1Ev(ptr noundef nonnull align 8 dereferenceable(217) %4)
          to label %5 unwind label %31

5:                                                ; preds = %3
  %6 = getelementptr inbounds nuw i8, ptr %0, i64 232
  store i32 %2, ptr %6, align 8, !tbaa !23
  %7 = getelementptr inbounds nuw i8, ptr %0, i64 240
  invoke void @_ZN6icu_7712ICUDataTableC1EPKcRKNS_6LocaleE(ptr noundef nonnull align 8 dereferenceable(232) %7, ptr noundef nonnull @.str, ptr noundef nonnull align 8 dereferenceable(217) %1)
          to label %8 unwind label %33

8:                                                ; preds = %5
  %9 = getelementptr inbounds nuw i8, ptr %0, i64 472
  invoke void @_ZN6icu_7712ICUDataTableC1EPKcRKNS_6LocaleE(ptr noundef nonnull align 8 dereferenceable(232) %9, ptr noundef nonnull @.str.1, ptr noundef nonnull align 8 dereferenceable(217) %1)
          to label %10 unwind label %35

10:                                               ; preds = %8
  %11 = getelementptr inbounds nuw i8, ptr %0, i64 704
  %12 = getelementptr inbounds nuw i8, ptr %0, i64 712
  invoke void @_ZN6icu_7713UnicodeStringC1EDs(ptr noundef nonnull align 8 dereferenceable(64) %12, i16 noundef zeroext 0)
          to label %_ZN6icu_7715SimpleFormatterC2Ev.exit unwind label %37

_ZN6icu_7715SimpleFormatterC2Ev.exit:             ; preds = %10
  %13 = getelementptr inbounds nuw i8, ptr %0, i64 776
  %14 = getelementptr inbounds nuw i8, ptr %0, i64 784
  invoke void @_ZN6icu_7713UnicodeStringC1EDs(ptr noundef nonnull align 8 dereferenceable(64) %14, i16 noundef zeroext 0)
          to label %_ZN6icu_7715SimpleFormatterC2Ev.exit25 unwind label %39

_ZN6icu_7715SimpleFormatterC2Ev.exit25:           ; preds = %_ZN6icu_7715SimpleFormatterC2Ev.exit
  %15 = getelementptr inbounds nuw i8, ptr %0, i64 848
  %16 = getelementptr inbounds nuw i8, ptr %0, i64 856
  invoke void @_ZN6icu_7713UnicodeStringC1EDs(ptr noundef nonnull align 8 dereferenceable(64) %16, i16 noundef zeroext 0)
          to label %17 unwind label %41

17:                                               ; preds = %_ZN6icu_7715SimpleFormatterC2Ev.exit25
  %18 = getelementptr inbounds nuw i8, ptr %0, i64 920
  store i32 256, ptr %18, align 8, !tbaa !32
  %19 = getelementptr inbounds nuw i8, ptr %0, i64 928
  store ptr null, ptr %19, align 8, !tbaa !33
  %20 = getelementptr inbounds nuw i8, ptr %0, i64 936
  store ptr getelementptr inbounds nuw inrange(-16, 88) (i8, ptr @_ZTVN6icu_7713UnicodeStringE, i64 16), ptr %20, align 8, !tbaa !21
  %21 = getelementptr inbounds nuw i8, ptr %0, i64 944
  store i16 2, ptr %21, align 8, !tbaa !20
  %22 = getelementptr inbounds nuw i8, ptr %0, i64 1000
  store ptr getelementptr inbounds nuw inrange(-16, 88) (i8, ptr @_ZTVN6icu_7713UnicodeStringE, i64 16), ptr %22, align 8, !tbaa !21
  %23 = getelementptr inbounds nuw i8, ptr %0, i64 1008
  store i16 2, ptr %23, align 8, !tbaa !20
  %24 = getelementptr inbounds nuw i8, ptr %0, i64 1064
  store ptr getelementptr inbounds nuw inrange(-16, 88) (i8, ptr @_ZTVN6icu_7713UnicodeStringE, i64 16), ptr %24, align 8, !tbaa !21
  %25 = getelementptr inbounds nuw i8, ptr %0, i64 1072
  store i16 2, ptr %25, align 8, !tbaa !20
  %26 = getelementptr inbounds nuw i8, ptr %0, i64 1128
  store ptr getelementptr inbounds nuw inrange(-16, 88) (i8, ptr @_ZTVN6icu_7713UnicodeStringE, i64 16), ptr %26, align 8, !tbaa !21
  %27 = getelementptr inbounds nuw i8, ptr %0, i64 1136
  store i16 2, ptr %27, align 8, !tbaa !20
  %28 = getelementptr inbounds nuw i8, ptr %0, i64 1192
  store i32 512, ptr %28, align 8, !tbaa !34
  %29 = getelementptr inbounds nuw i8, ptr %0, i64 1196
  store i32 768, ptr %29, align 4, !tbaa !35
  invoke void @_ZN6icu_7722LocaleDisplayNamesImpl10initializeEv(ptr noundef nonnull align 8 dereferenceable(1206) %0)
          to label %30 unwind label %43

30:                                               ; preds = %17
  ret void

31:                                               ; preds = %3
  %32 = landingpad { ptr, i32 }
          cleanup
  br label %52

33:                                               ; preds = %5
  %34 = landingpad { ptr, i32 }
          cleanup
  br label %51

35:                                               ; preds = %8
  %36 = landingpad { ptr, i32 }
          cleanup
  br label %49

37:                                               ; preds = %10
  %38 = landingpad { ptr, i32 }
          cleanup
  br label %47

39:                                               ; preds = %_ZN6icu_7715SimpleFormatterC2Ev.exit
  %40 = landingpad { ptr, i32 }
          cleanup
  br label %46

41:                                               ; preds = %_ZN6icu_7715SimpleFormatterC2Ev.exit25
  %42 = landingpad { ptr, i32 }
          cleanup
  br label %45

43:                                               ; preds = %17
  %44 = landingpad { ptr, i32 }
          cleanup
  tail call void @_ZN6icu_7713UnicodeStringD1Ev(ptr noundef nonnull align 8 dereferenceable(64) %26) #19
  tail call void @_ZN6icu_7713UnicodeStringD1Ev(ptr noundef nonnull align 8 dereferenceable(64) %24) #19
  tail call void @_ZN6icu_7713UnicodeStringD1Ev(ptr noundef nonnull align 8 dereferenceable(64) %22) #19
  tail call void @_ZN6icu_7713UnicodeStringD1Ev(ptr noundef nonnull align 8 dereferenceable(64) %20) #19
  tail call void @_ZN6icu_7715SimpleFormatterD1Ev(ptr noundef nonnull align 8 dereferenceable(72) %15) #19
  br label %45

45:                                               ; preds = %43, %41
  %.pn.pn.pn.pn.pn = phi { ptr, i32 } [ %44, %43 ], [ %42, %41 ]
  tail call void @_ZN6icu_7715SimpleFormatterD1Ev(ptr noundef nonnull align 8 dereferenceable(72) %13) #19
  br label %46

46:                                               ; preds = %45, %39
  %.pn.pn.pn.pn.pn.pn = phi { ptr, i32 } [ %.pn.pn.pn.pn.pn, %45 ], [ %40, %39 ]
  tail call void @_ZN6icu_7715SimpleFormatterD1Ev(ptr noundef nonnull align 8 dereferenceable(72) %11) #19
  br label %47

47:                                               ; preds = %46, %37
  %.pn.pn.pn.pn.pn.pn.pn = phi { ptr, i32 } [ %.pn.pn.pn.pn.pn.pn, %46 ], [ %38, %37 ]
  %48 = getelementptr inbounds nuw i8, ptr %0, i64 480
  tail call void @_ZN6icu_776LocaleD1Ev(ptr noundef nonnull align 8 dereferenceable(217) %48) #19
  br label %49

49:                                               ; preds = %47, %35
  %.pn.pn.pn.pn.pn.pn.pn.pn = phi { ptr, i32 } [ %.pn.pn.pn.pn.pn.pn.pn, %47 ], [ %36, %35 ]
  %50 = getelementptr inbounds nuw i8, ptr %0, i64 248
  tail call void @_ZN6icu_776LocaleD1Ev(ptr noundef nonnull align 8 dereferenceable(217) %50) #19
  br label %51

51:                                               ; preds = %49, %33
  %.pn.pn.pn.pn.pn.pn.pn.pn.pn = phi { ptr, i32 } [ %.pn.pn.pn.pn.pn.pn.pn.pn, %49 ], [ %34, %33 ]
  tail call void @_ZN6icu_776LocaleD1Ev(ptr noundef nonnull align 8 dereferenceable(217) %4) #19
  br label %52

52:                                               ; preds = %51, %31
  %.pn.pn.pn.pn.pn.pn.pn.pn.pn.pn = phi { ptr, i32 } [ %.pn.pn.pn.pn.pn.pn.pn.pn.pn, %51 ], [ %32, %31 ]
  tail call void @_ZN6icu_777UObjectD2Ev(ptr noundef nonnull align 8 dereferenceable(8) %0) #19
  resume { ptr, i32 } %.pn.pn.pn.pn.pn.pn.pn.pn.pn.pn
}